target datalayout = "e-m:e-p270:32:32-p271:32:32-p272:64:64-i64:64-i128:128-f80:128-n8:16:32:64-S128"
target triple = "x86_64-unknown-linux-gnu"

%"class.node::EmbedderSnapshotData" = type <{ ptr, i8, [7 x i8] }>

; Function Attrs: mustprogress nounwind uwtable
define dso_local noundef ptr @_ZN4node12SnapshotData19FromEmbedderWrapperEPKNS_20EmbedderSnapshotDataE(ptr noundef %data) #4 align 2 {
entry:
  %data.addr = alloca ptr, align 8
  store ptr %data, ptr %data.addr, align 8
  %0 = load ptr, ptr %data.addr, align 8
  %cmp = icmp ne ptr %0, null
  br i1 %cmp, label %cond.true, label %cond.false

cond.true:                                        ; preds = %entry
  %1 = load ptr, ptr %data.addr, align 8
  %impl_ = getelementptr inbounds %"class.node::EmbedderSnapshotData", ptr %1, i32 0, i32 0
  %2 = load ptr, ptr %impl_, align 8
  br label %cond.end

cond.false:                                       ; preds = %entry
  br label %cond.end

cond.end:                                         ; preds = %cond.false, %cond.true
  %cond = phi ptr [ %2, %cond.true ], [ null, %cond.false ]
  ret ptr %cond
}