; Function Attrs: mustprogress nofree norecurse nosync nounwind willreturn memory(argmem: read) uwtable
define dso_local noundef ptr @_ZN4node12SnapshotData19FromEmbedderWrapperEPKNS_20EmbedderSnapshotDataE(ptr noundef readonly %data) local_unnamed_addr #8 align 2 {
entry:
  %cmp.not = icmp eq ptr %data, null
  br i1 %cmp.not, label %cond.end, label %cond.true

cond.true:                                        ; preds = %entry
  %0 = load ptr, ptr %data, align 8
  br label %cond.end

cond.end:                                         ; preds = %entry, %cond.true
  %cond = phi ptr [ %0, %cond.true ], [ null, %entry ]
  ret ptr %cond
}